; ModuleID = 'bench/linux/original/dummycon.ll'
source_filename = "bench/linux/original/dummycon.ll"
target datalayout = "e-m:e-p270:32:32-p271:32:32-p272:64:64-i64:64-i128:128-f80:128-n8:16:32:64-S128"
target triple = "x86_64-unknown-linux-gnu"

module asm ".section \22.export_symbol\22,\22a\22 ; __export_symbol_dummy_con: ; .asciz \22GPL\22 ; .asciz \22\22 ; .balign 8 ; .quad dummy_con ; .previous"

%struct.consw = type { ptr, ptr, ptr, ptr, ptr, ptr, ptr, ptr, ptr, ptr, ptr, ptr, ptr, ptr, ptr, ptr, ptr, ptr, ptr, ptr, ptr, ptr, ptr, ptr, ptr, ptr }

@dummy_con = dso_local constant %struct.consw { ptr null, ptr @dummycon_startup, ptr @dummycon_init, ptr @dummycon_deinit, ptr @dummycon_clear, ptr @dummycon_putc, ptr @dummycon_putcs, ptr @dummycon_cursor, ptr @dummycon_scroll, ptr @dummycon_switch, ptr @dummycon_blank, ptr null, ptr null, ptr null, ptr null, ptr null, ptr null, ptr null, ptr null, ptr null, ptr null, ptr null, ptr null, ptr null, ptr null, ptr null }, align 8
@__UNIQUE_ID___addressable_dummy_con350 = internal global ptr @dummy_con, section ".discard.addressable", align 8
@.str = private unnamed_addr constant [13 x i8] c"dummy device\00", align 1
@llvm.compiler.used = appending global [1 x ptr] [ptr @__UNIQUE_ID___addressable_dummy_con350], section "llvm.metadata"

; Function Attrs: fn_ret_thunk_extern mustprogress nofree norecurse nosync nounwind null_pointer_is_valid willreturn memory(none)
define internal noundef nonnull ptr @dummycon_startup() #0 align 16 {
  ret ptr @.str
}

; Function Attrs: fn_ret_thunk_extern nounwind null_pointer_is_valid
define internal void @dummycon_init(ptr noundef %0, i32 noundef %1) #1 align 16 {
  %3 = getelementptr inbounds i8, ptr %0, i64 680
  %4 = load i16, ptr %3, align 8
  %5 = or i16 %4, 2048
  store i16 %5, ptr %3, align 8
  %6 = icmp eq i32 %1, 0
  br i1 %6, label %10, label %7

7:                                                ; preds = %2
  %8 = getelementptr inbounds i8, ptr %0, i64 420
  store i32 80, ptr %8, align 4
  %9 = getelementptr inbounds i8, ptr %0, i64 424
  store i32 25, ptr %9, align 8
  br label %12

10:                                               ; preds = %2
  %11 = tail call i32 @vc_resize(ptr noundef %0, i32 noundef 80, i32 noundef 25) #3
  br label %12

12:                                               ; preds = %10, %7
  ret void
}

; Function Attrs: fn_ret_thunk_extern mustprogress nofree norecurse nosync nounwind null_pointer_is_valid willreturn memory(none)
define internal void @dummycon_deinit(ptr nocapture readnone %0) #0 align 16 {
  ret void
}

; Function Attrs: fn_ret_thunk_extern mustprogress nofree norecurse nosync nounwind null_pointer_is_valid willreturn memory(none)
define internal void @dummycon_clear(ptr nocapture readnone %0, i32 %1, i32 %2, i32 %3, i32 %4) #0 align 16 {
  ret void
}

; Function Attrs: fn_ret_thunk_extern mustprogress nofree norecurse nosync nounwind null_pointer_is_valid willreturn memory(none)
define internal void @dummycon_putc(ptr nocapture readnone %0, i32 %1, i32 %2, i32 %3) #0 align 16 {
  ret void
}

; Function Attrs: fn_ret_thunk_extern mustprogress nofree norecurse nosync nounwind null_pointer_is_valid willreturn memory(none)
define internal void @dummycon_putcs(ptr nocapture readnone %0, ptr nocapture readnone %1, i32 %2, i32 %3, i32 %4) #0 align 16 {
  ret void
}

; Function Attrs: fn_ret_thunk_extern mustprogress nofree norecurse nosync nounwind null_pointer_is_valid willreturn memory(none)
define internal void @dummycon_cursor(ptr nocapture readnone %0, i32 %1) #0 align 16 {
  ret void
}

; Function Attrs: fn_ret_thunk_extern mustprogress nofree norecurse nosync nounwind null_pointer_is_valid willreturn memory(none)
define internal noundef zeroext i1 @dummycon_scroll(ptr nocapture readnone %0, i32 %1, i32 %2, i32 %3, i32 %4) #0 align 16 {
  ret i1 false
}

; Function Attrs: fn_ret_thunk_extern mustprogress nofree norecurse nosync nounwind null_pointer_is_valid willreturn memory(none)
define internal noundef i32 @dummycon_switch(ptr nocapture readnone %0) #0 align 16 {
  ret i32 0
}

; Function Attrs: fn_ret_thunk_extern mustprogress nofree norecurse nosync nounwind null_pointer_is_valid willreturn memory(none)
define internal noundef i32 @dummycon_blank(ptr nocapture readnone %0, i32 %1, i32 %2) #0 align 16 {
  ret i32 0
}

; Function Attrs: null_pointer_is_valid
declare dso_local i32 @vc_resize(ptr noundef, i32 noundef, i32 noundef) local_unnamed_addr #2


!llvm.module.flags = !{!0, !1, !2, !3, !4}

!0 = !{i32 1, !"wchar_size", i32 2}
!1 = !{i32 8, !"cf-protection-branch", i32 1}
!2 = !{i32 4, !"function_return_thunk_extern", i32 1}
!3 = !{i32 4, !"indirect_branch_cs_prefix", i32 1}
!4 = !{i32 4, !"SkipRaxSetup", i32 1}
